target datalayout = "e-m:e-p270:32:32-p271:32:32-p272:64:64-i64:64-i128:128-f80:128-n8:16:32:64-S128"
target triple = "x86_64-unknown-linux-gnu"

%"class.re2::RE2" = type <{ %"class.std::__cxx11::basic_string", %"class.re2::RE2::Options", ptr, ptr, i32, [4 x i8], %"class.std::__cxx11::basic_string", %"class.std::__cxx11::basic_string", i8, [7 x i8], ptr, ptr, i32, i8, [3 x i8], ptr, ptr, ptr, %"struct.std::once_flag", %"struct.std::once_flag", %"struct.std::once_flag", [4 x i8] }>
%"class.re2::RE2::Options" = type { i32, i8, i8, i8, i64, i8, i8, i8, i8, i8, i8, i8, i8 }
%"class.std::__cxx11::basic_string" = type { %"struct.std::__cxx11::basic_string<char>::_Alloc_hider", i64, %union.anon }
%"struct.std::__cxx11::basic_string<char>::_Alloc_hider" = type { ptr }
%union.anon = type { i64, [8 x i8] }
%"struct.std::once_flag" = type { i32 }
%"class.re2::StringPiece" = type { ptr, i64 }
%"class.re2::RE2::Arg" = type { ptr, ptr }

@_ZZN8facebook5velox4core10toCapacityERKNSt7__cxx1112basic_stringIcSt11char_traitsIcESaIcEEENS1_12CapacityUnitEE8kPattern = internal global %"class.re2::RE2" zeroinitializer, align 8
@_ZGVZN8facebook5velox4core10toCapacityERKNSt7__cxx1112basic_stringIcSt11char_traitsIcESaIcEEENS1_12CapacityUnitEE8kPattern = internal global i64 0, align 8
@.str.6 = private unnamed_addr constant [38 x i8] c"^\\s*(\\d+(?:\\.\\d+)?)\\s*([a-zA-Z]+)\\s*$\00", align 1
@__dso_handle = external hidden global i8

; Function Attrs: mustprogress uwtable
define linkonce_odr noundef zeroext i1 @_ZN3re23RE25ApplyIPFbRKNS_11StringPieceERKS0_PKPKNS0_3ArgEiES2_JS7_S7_EEEbT_T0_S6_DpRKT1_(ptr noundef %f, ptr %sp.coerce0, i64 %sp.coerce1, ptr noundef nonnull align 8 dereferenceable(212) %re, ptr noundef nonnull align 8 dereferenceable(16) %a, ptr noundef nonnull align 8 dereferenceable(16) %a1) #3 comdat align 2 {
entry:
  %sp = alloca %"class.re2::StringPiece", align 8
  %f.addr = alloca ptr, align 8
  %re.addr = alloca ptr, align 8
  %a.addr = alloca ptr, align 8
  %a.addr2 = alloca ptr, align 8
  %args = alloca [2 x ptr], align 16
  %n = alloca i32, align 4
  %0 = getelementptr inbounds { ptr, i64 }, ptr %sp, i32 0, i32 0
  store ptr %sp.coerce0, ptr %0, align 8
  %1 = getelementptr inbounds { ptr, i64 }, ptr %sp, i32 0, i32 1
  store i64 %sp.coerce1, ptr %1, align 8
  store ptr %f, ptr %f.addr, align 8
  store ptr %re, ptr %re.addr, align 8
  store ptr %a, ptr %a.addr, align 8
  store ptr %a1, ptr %a.addr2, align 8
  %arrayinit.begin = getelementptr inbounds [2 x ptr], ptr %args, i64 0, i64 0
  %2 = load ptr, ptr %a.addr, align 8
  store ptr %2, ptr %arrayinit.begin, align 8
  %arrayinit.element = getelementptr inbounds ptr, ptr %arrayinit.begin, i64 1
  %3 = load ptr, ptr %a.addr2, align 8
  store ptr %3, ptr %arrayinit.element, align 8
  store i32 2, ptr %n, align 4
  %4 = load ptr, ptr %f.addr, align 8
  %5 = load ptr, ptr %re.addr, align 8
  %arraydecay = getelementptr inbounds [2 x ptr], ptr %args, i64 0, i64 0
  %call = call noundef zeroext i1 %4(ptr noundef nonnull align 8 dereferenceable(16) %sp, ptr noundef nonnull align 8 dereferenceable(212) %5, ptr noundef %arraydecay, i32 noundef 2)
  ret i1 %call
}

; Function Attrs: mustprogress nounwind uwtable
define linkonce_odr void @_ZN3re23RE23ArgC2INSt7__cxx1112basic_stringIcSt11char_traitsIcESaIcEEETnNSt9enable_ifIXsr12re2_internal9Parse3aryIT_EE5valueEiE4typeELi0EEEPSA_(ptr noundef nonnull align 8 dereferenceable(16) %this, ptr noundef %ptr) unnamed_addr #0 comdat align 2 {
entry:
  %this.addr = alloca ptr, align 8
  %ptr.addr = alloca ptr, align 8
  store ptr %this, ptr %this.addr, align 8
  store ptr %ptr, ptr %ptr.addr, align 8
  %this1 = load ptr, ptr %this.addr, align 8
  %arg_ = getelementptr inbounds %"class.re2::RE2::Arg", ptr %this1, i32 0, i32 0
  %0 = load ptr, ptr %ptr.addr, align 8
  store ptr %0, ptr %arg_, align 8
  %parser_ = getelementptr inbounds %"class.re2::RE2::Arg", ptr %this1, i32 0, i32 1
  store ptr @_ZN3re23RE23Arg11DoParse3aryINSt7__cxx1112basic_stringIcSt11char_traitsIcESaIcEEEEEbPKcmPv, ptr %parser_, align 8
  ret void
}

; Function Attrs: mustprogress nounwind uwtable
define linkonce_odr void @_ZN3re23RE23ArgC2IdTnNSt9enable_ifIXsr12re2_internal9Parse3aryIT_EE5valueEiE4typeELi0EEEPS4_(ptr noundef nonnull align 8 dereferenceable(16) %this, ptr noundef %ptr) unnamed_addr #0 comdat align 2 {
entry:
  %this.addr = alloca ptr, align 8
  %ptr.addr = alloca ptr, align 8
  store ptr %this, ptr %this.addr, align 8
  store ptr %ptr, ptr %ptr.addr, align 8
  %this1 = load ptr, ptr %this.addr, align 8
  %arg_ = getelementptr inbounds %"class.re2::RE2::Arg", ptr %this1, i32 0, i32 0
  %0 = load ptr, ptr %ptr.addr, align 8
  store ptr %0, ptr %arg_, align 8
  %parser_ = getelementptr inbounds %"class.re2::RE2::Arg", ptr %this1, i32 0, i32 1
  store ptr @_ZN3re23RE23Arg11DoParse3aryIdEEbPKcmPv, ptr %parser_, align 8
  ret void
}

; Function Attrs: mustprogress nounwind uwtable
define noundef double @_ZN8facebook5velox4core22toBytesPerCapacityUnitENS1_12CapacityUnitE(i32 noundef %unit) #0 {
entry:
  %retval = alloca double, align 8
  %unit.addr = alloca i32, align 4
  store i32 %unit, ptr %unit.addr, align 4
  %0 = load i32, ptr %unit.addr, align 4
  switch i32 %0, label %sw.default [
    i32 0, label %sw.bb
    i32 1, label %sw.bb1
    i32 2, label %sw.bb2
    i32 3, label %sw.bb4
    i32 4, label %sw.bb6
    i32 5, label %sw.bb8
  ]

sw.bb:                                            ; preds = %entry
  store double 1.000000e+00, ptr %retval, align 8
  br label %return

sw.bb1:                                           ; preds = %entry
  %call = call double @exp2(double noundef 1.000000e+01) #4
  store double %call, ptr %retval, align 8
  br label %return

sw.bb2:                                           ; preds = %entry
  %call3 = call double @exp2(double noundef 2.000000e+01) #4
  store double %call3, ptr %retval, align 8
  br label %return

sw.bb4:                                           ; preds = %entry
  %call5 = call double @exp2(double noundef 3.000000e+01) #4
  store double %call5, ptr %retval, align 8
  br label %return

sw.bb6:                                           ; preds = %entry
  %call7 = call double @exp2(double noundef 4.000000e+01) #4
  store double %call7, ptr %retval, align 8
  br label %return

sw.bb8:                                           ; preds = %entry
  %call9 = call double @exp2(double noundef 5.000000e+01) #4
  store double %call9, ptr %retval, align 8
  br label %return

sw.default:                                       ; preds = %entry
  call void @llvm.trap()
  br label %sw.epilog

sw.epilog:                                        ; preds = %sw.default
  call void @llvm.trap()
  unreachable

return:                                           ; preds = %sw.bb8, %sw.bb6, %sw.bb4, %sw.bb2, %sw.bb1, %sw.bb
  %1 = load double, ptr %retval, align 8
  ret double %1
}

; Function Attrs: mustprogress uwtable
define linkonce_odr noundef zeroext i1 @_ZN3re23RE29FullMatchIJPdPNSt7__cxx1112basic_stringIcSt11char_traitsIcESaIcEEEEEEbRKNS_11StringPieceERKS0_DpOT_(ptr noundef nonnull align 8 dereferenceable(16) %text, ptr noundef nonnull align 8 dereferenceable(212) %re, ptr noundef nonnull align 8 dereferenceable(8) %a, ptr noundef nonnull align 8 dereferenceable(8) %a1) #3 comdat align 2 {
entry:
  %text.addr = alloca ptr, align 8
  %re.addr = alloca ptr, align 8
  %a.addr = alloca ptr, align 8
  %a.addr2 = alloca ptr, align 8
  %agg.tmp = alloca %"class.re2::StringPiece", align 8
  %ref.tmp = alloca %"class.re2::RE2::Arg", align 8
  %ref.tmp3 = alloca %"class.re2::RE2::Arg", align 8
  store ptr %text, ptr %text.addr, align 8
  store ptr %re, ptr %re.addr, align 8
  store ptr %a, ptr %a.addr, align 8
  store ptr %a1, ptr %a.addr2, align 8
  %0 = load ptr, ptr %text.addr, align 8
  call void @llvm.memcpy.p0.p0.i64(ptr align 8 %agg.tmp, ptr align 8 %0, i64 16, i1 false)
  %1 = load ptr, ptr %re.addr, align 8
  %2 = load ptr, ptr %a.addr, align 8
  %3 = load ptr, ptr %2, align 8
  call void @_ZN3re23RE23ArgC2IdTnNSt9enable_ifIXsr12re2_internal9Parse3aryIT_EE5valueEiE4typeELi0EEEPS4_(ptr noundef nonnull align 8 dereferenceable(16) %ref.tmp, ptr noundef %3)
  %4 = load ptr, ptr %a.addr2, align 8
  %5 = load ptr, ptr %4, align 8
  call void @_ZN3re23RE23ArgC2INSt7__cxx1112basic_stringIcSt11char_traitsIcESaIcEEETnNSt9enable_ifIXsr12re2_internal9Parse3aryIT_EE5valueEiE4typeELi0EEEPSA_(ptr noundef nonnull align 8 dereferenceable(16) %ref.tmp3, ptr noundef %5)
  %6 = getelementptr inbounds { ptr, i64 }, ptr %agg.tmp, i32 0, i32 0
  %7 = load ptr, ptr %6, align 8
  %8 = getelementptr inbounds { ptr, i64 }, ptr %agg.tmp, i32 0, i32 1
  %9 = load i64, ptr %8, align 8
  %call = call noundef zeroext i1 @_ZN3re23RE25ApplyIPFbRKNS_11StringPieceERKS0_PKPKNS0_3ArgEiES2_JS7_S7_EEEbT_T0_S6_DpRKT1_(ptr noundef @_ZN3re23RE210FullMatchNERKNS_11StringPieceERKS0_PKPKNS0_3ArgEi, ptr %7, i64 %9, ptr noundef nonnull align 8 dereferenceable(212) %1, ptr noundef nonnull align 8 dereferenceable(16) %ref.tmp, ptr noundef nonnull align 8 dereferenceable(16) %ref.tmp3)
  ret i1 %call
}

; Function Attrs: mustprogress nounwind uwtable
define linkonce_odr void @_ZN3re211StringPieceC2ERKNSt7__cxx1112basic_stringIcSt11char_traitsIcESaIcEEE(ptr noundef nonnull align 8 dereferenceable(16) %this, ptr noundef nonnull align 8 dereferenceable(32) %str) unnamed_addr #0 comdat align 2 {
entry:
  %this.addr = alloca ptr, align 8
  %str.addr = alloca ptr, align 8
  store ptr %this, ptr %this.addr, align 8
  store ptr %str, ptr %str.addr, align 8
  %this1 = load ptr, ptr %this.addr, align 8
  %data_ = getelementptr inbounds %"class.re2::StringPiece", ptr %this1, i32 0, i32 0
  %0 = load ptr, ptr %str.addr, align 8
  %call = call noundef ptr @_ZNKSt7__cxx1112basic_stringIcSt11char_traitsIcESaIcEE4dataEv(ptr noundef nonnull align 8 dereferenceable(32) %0) #4
  store ptr %call, ptr %data_, align 8
  %size_ = getelementptr inbounds %"class.re2::StringPiece", ptr %this1, i32 0, i32 1
  %1 = load ptr, ptr %str.addr, align 8
  %call2 = call noundef i64 @_ZNKSt7__cxx1112basic_stringIcSt11char_traitsIcESaIcEE4sizeEv(ptr noundef nonnull align 8 dereferenceable(32) %1) #4
  store i64 %call2, ptr %size_, align 8
  ret void
}

; Function Attrs: mustprogress uwtable
define noundef i64 @_ZN8facebook5velox4core10toCapacityERKNSt7__cxx1112basic_stringIcSt11char_traitsIcESaIcEEENS1_12CapacityUnitE(ptr noundef nonnull align 8 dereferenceable(32) %from, i32 noundef %to) #3 personality ptr @__gxx_personality_v0 {
entry:
  %from.addr = alloca ptr, align 8
  %to.addr = alloca i32, align 4
  %exn.slot = alloca ptr, align 8
  %ehselector.slot = alloca i32, align 4
  %value = alloca double, align 8
  %unit = alloca %"class.std::__cxx11::basic_string", align 8
  %ref.tmp = alloca %"class.re2::StringPiece", align 8
  %ref.tmp3 = alloca ptr, align 8
  %ref.tmp4 = alloca ptr, align 8
  store ptr %from, ptr %from.addr, align 8
  store i32 %to, ptr %to.addr, align 4
  %0 = load atomic i8, ptr @_ZGVZN8facebook5velox4core10toCapacityERKNSt7__cxx1112basic_stringIcSt11char_traitsIcESaIcEEENS1_12CapacityUnitEE8kPattern acquire, align 8
  %guard.uninitialized = icmp eq i8 %0, 0
  br i1 %guard.uninitialized, label %init.check, label %init.end, !prof !4

init.check:                                       ; preds = %entry
  %1 = call i32 @__cxa_guard_acquire(ptr @_ZGVZN8facebook5velox4core10toCapacityERKNSt7__cxx1112basic_stringIcSt11char_traitsIcESaIcEEENS1_12CapacityUnitEE8kPattern) #4
  %tobool = icmp ne i32 %1, 0
  br i1 %tobool, label %init, label %init.end

init:                                             ; preds = %init.check
  invoke void @_ZN3re23RE2C1EPKc(ptr noundef nonnull align 8 dereferenceable(212) @_ZZN8facebook5velox4core10toCapacityERKNSt7__cxx1112basic_stringIcSt11char_traitsIcESaIcEEENS1_12CapacityUnitEE8kPattern, ptr noundef @.str.6)
          to label %invoke.cont unwind label %lpad

invoke.cont:                                      ; preds = %init
  %2 = call i32 @__cxa_atexit(ptr @_ZN3re23RE2D1Ev, ptr @_ZZN8facebook5velox4core10toCapacityERKNSt7__cxx1112basic_stringIcSt11char_traitsIcESaIcEEENS1_12CapacityUnitEE8kPattern, ptr @__dso_handle) #4
  call void @__cxa_guard_release(ptr @_ZGVZN8facebook5velox4core10toCapacityERKNSt7__cxx1112basic_stringIcSt11char_traitsIcESaIcEEENS1_12CapacityUnitEE8kPattern) #4
  br label %init.end

init.end:                                         ; preds = %invoke.cont, %init.check, %entry
  call void @_ZNSt7__cxx1112basic_stringIcSt11char_traitsIcESaIcEEC1Ev(ptr noundef nonnull align 8 dereferenceable(32) %unit) #4
  %3 = load ptr, ptr %from.addr, align 8
  invoke void @_ZN3re211StringPieceC2ERKNSt7__cxx1112basic_stringIcSt11char_traitsIcESaIcEEE(ptr noundef nonnull align 8 dereferenceable(16) %ref.tmp, ptr noundef nonnull align 8 dereferenceable(32) %3)
          to label %invoke.cont2 unwind label %lpad1

invoke.cont2:                                     ; preds = %init.end
  store ptr %value, ptr %ref.tmp3, align 8
  store ptr %unit, ptr %ref.tmp4, align 8
  %call = invoke noundef zeroext i1 @_ZN3re23RE29FullMatchIJPdPNSt7__cxx1112basic_stringIcSt11char_traitsIcESaIcEEEEEEbRKNS_11StringPieceERKS0_DpOT_(ptr noundef nonnull align 8 dereferenceable(16) %ref.tmp, ptr noundef nonnull align 8 dereferenceable(212) @_ZZN8facebook5velox4core10toCapacityERKNSt7__cxx1112basic_stringIcSt11char_traitsIcESaIcEEENS1_12CapacityUnitEE8kPattern, ptr noundef nonnull align 8 dereferenceable(8) %ref.tmp3, ptr noundef nonnull align 8 dereferenceable(8) %ref.tmp4)
          to label %invoke.cont5 unwind label %lpad1

invoke.cont5:                                     ; preds = %invoke.cont2
  %lnot = xor i1 %call, true
  br i1 %lnot, label %if.then, label %if.end

if.then:                                          ; preds = %invoke.cont5
  call void @llvm.trap()
  br label %if.end

lpad:                                             ; preds = %init
  %4 = landingpad { ptr, i32 }
          cleanup
  %5 = extractvalue { ptr, i32 } %4, 0
  store ptr %5, ptr %exn.slot, align 8
  %6 = extractvalue { ptr, i32 } %4, 1
  store i32 %6, ptr %ehselector.slot, align 4
  call void @__cxa_guard_abort(ptr @_ZGVZN8facebook5velox4core10toCapacityERKNSt7__cxx1112basic_stringIcSt11char_traitsIcESaIcEEENS1_12CapacityUnitEE8kPattern) #4
  br label %eh.resume

lpad1:                                            ; preds = %if.end, %invoke.cont2, %init.end
  %7 = landingpad { ptr, i32 }
          cleanup
  %8 = extractvalue { ptr, i32 } %7, 0
  store ptr %8, ptr %exn.slot, align 8
  %9 = extractvalue { ptr, i32 } %7, 1
  store i32 %9, ptr %ehselector.slot, align 4
  call void @_ZNSt7__cxx1112basic_stringIcSt11char_traitsIcESaIcEED1Ev(ptr noundef nonnull align 8 dereferenceable(32) %unit) #4
  br label %eh.resume

if.end:                                           ; preds = %if.then, %invoke.cont5
  %10 = load double, ptr %value, align 8
  %call7 = invoke noundef i32 @_ZN8facebook5velox4core19valueOfCapacityUnitERKNSt7__cxx1112basic_stringIcSt11char_traitsIcESaIcEEE(ptr noundef nonnull align 8 dereferenceable(32) %unit)
          to label %invoke.cont6 unwind label %lpad1

invoke.cont6:                                     ; preds = %if.end
  %call8 = call noundef double @_ZN8facebook5velox4core22toBytesPerCapacityUnitENS1_12CapacityUnitE(i32 noundef %call7)
  %11 = load i32, ptr %to.addr, align 4
  %call9 = call noundef double @_ZN8facebook5velox4core22toBytesPerCapacityUnitENS1_12CapacityUnitE(i32 noundef %11)
  %div = fdiv double %call8, %call9
  %mul = fmul double %10, %div
  %conv = fptoui double %mul to i64
  call void @_ZNSt7__cxx1112basic_stringIcSt11char_traitsIcESaIcEED1Ev(ptr noundef nonnull align 8 dereferenceable(32) %unit) #4
  ret i64 %conv

eh.resume:                                        ; preds = %lpad1, %lpad
  %exn = load ptr, ptr %exn.slot, align 8
  %sel = load i32, ptr %ehselector.slot, align 4
  %lpad.val = insertvalue { ptr, i32 } poison, ptr %exn, 0
  %lpad.val10 = insertvalue { ptr, i32 } %lpad.val, i32 %sel, 1
  resume { ptr, i32 } %lpad.val10
}