; Function Attrs: mustprogress uwtable
define noundef i64 @_ZN8facebook5velox4core10toCapacityERKNSt7__cxx1112basic_stringIcSt11char_traitsIcESaIcEEENS1_12CapacityUnitE(ptr noundef nonnull align 8 dereferenceable(32) %from, i32 noundef %to) local_unnamed_addr #3 personality ptr @__gxx_personality_v0 {
entry:
  %sp.i.i = alloca %"class.re2::StringPiece", align 8
  %args.i.i = alloca [2 x ptr], align 16
  %ref.tmp.i = alloca %"class.re2::RE2::Arg", align 8
  %ref.tmp3.i = alloca %"class.re2::RE2::Arg", align 8
  %value = alloca double, align 8
  %unit = alloca %"class.std::__cxx11::basic_string", align 8
  %0 = load atomic i8, ptr @_ZGVZN8facebook5velox4core10toCapacityERKNSt7__cxx1112basic_stringIcSt11char_traitsIcESaIcEEENS1_12CapacityUnitEE8kPattern acquire, align 8
  %guard.uninitialized = icmp eq i8 %0, 0
  br i1 %guard.uninitialized, label %init.check, label %init.end, !prof !4

init.check:                                       ; preds = %entry
  %1 = tail call i32 @__cxa_guard_acquire(ptr nonnull @_ZGVZN8facebook5velox4core10toCapacityERKNSt7__cxx1112basic_stringIcSt11char_traitsIcESaIcEEENS1_12CapacityUnitEE8kPattern) #14
  %tobool.not = icmp eq i32 %1, 0
  br i1 %tobool.not, label %init.end, label %init

init:                                             ; preds = %init.check
  invoke void @_ZN3re23RE2C1EPKc(ptr noundef nonnull align 8 dereferenceable(212) @_ZZN8facebook5velox4core10toCapacityERKNSt7__cxx1112basic_stringIcSt11char_traitsIcESaIcEEENS1_12CapacityUnitEE8kPattern, ptr noundef nonnull @.str.6)
          to label %invoke.cont unwind label %lpad

invoke.cont:                                      ; preds = %init
  %2 = tail call i32 @__cxa_atexit(ptr nonnull @_ZN3re23RE2D1Ev, ptr nonnull @_ZZN8facebook5velox4core10toCapacityERKNSt7__cxx1112basic_stringIcSt11char_traitsIcESaIcEEENS1_12CapacityUnitEE8kPattern, ptr nonnull @__dso_handle) #14
  tail call void @__cxa_guard_release(ptr nonnull @_ZGVZN8facebook5velox4core10toCapacityERKNSt7__cxx1112basic_stringIcSt11char_traitsIcESaIcEEENS1_12CapacityUnitEE8kPattern) #14
  br label %init.end

init.end:                                         ; preds = %invoke.cont, %init.check, %entry
  call void @_ZNSt7__cxx1112basic_stringIcSt11char_traitsIcESaIcEEC1Ev(ptr noundef nonnull align 8 dereferenceable(32) %unit) #14
  %call.i = call noundef ptr @_ZNKSt7__cxx1112basic_stringIcSt11char_traitsIcESaIcEE4dataEv(ptr noundef nonnull align 8 dereferenceable(32) %from) #14
  %call2.i = call noundef i64 @_ZNKSt7__cxx1112basic_stringIcSt11char_traitsIcESaIcEE4sizeEv(ptr noundef nonnull align 8 dereferenceable(32) %from) #14
  call void @llvm.lifetime.start.p0(i64 16, ptr nonnull %ref.tmp.i)
  call void @llvm.lifetime.start.p0(i64 16, ptr nonnull %ref.tmp3.i)
  store ptr %value, ptr %ref.tmp.i, align 8
  %parser_.i.i = getelementptr inbounds i8, ptr %ref.tmp.i, i64 8
  store ptr @_ZN3re23RE23Arg11DoParse3aryIdEEbPKcmPv, ptr %parser_.i.i, align 8
  store ptr %unit, ptr %ref.tmp3.i, align 8
  %parser_.i1.i = getelementptr inbounds i8, ptr %ref.tmp3.i, i64 8
  store ptr @_ZN3re23RE23Arg11DoParse3aryINSt7__cxx1112basic_stringIcSt11char_traitsIcESaIcEEEEEbPKcmPv, ptr %parser_.i1.i, align 8
  call void @llvm.lifetime.start.p0(i64 16, ptr nonnull %sp.i.i)
  call void @llvm.lifetime.start.p0(i64 16, ptr nonnull %args.i.i)
  store ptr %call.i, ptr %sp.i.i, align 8
  %3 = getelementptr inbounds i8, ptr %sp.i.i, i64 8
  store i64 %call2.i, ptr %3, align 8
  store ptr %ref.tmp.i, ptr %args.i.i, align 16
  %arrayinit.element.i.i = getelementptr inbounds i8, ptr %args.i.i, i64 8
  store ptr %ref.tmp3.i, ptr %arrayinit.element.i.i, align 8
  %call.i.i2 = invoke noundef zeroext i1 @_ZN3re23RE210FullMatchNERKNS_11StringPieceERKS0_PKPKNS0_3ArgEi(ptr noundef nonnull align 8 dereferenceable(16) %sp.i.i, ptr noundef nonnull align 8 dereferenceable(212) @_ZZN8facebook5velox4core10toCapacityERKNSt7__cxx1112basic_stringIcSt11char_traitsIcESaIcEEENS1_12CapacityUnitEE8kPattern, ptr noundef nonnull %args.i.i, i32 noundef 2)
          to label %invoke.cont5 unwind label %lpad1

invoke.cont5:                                     ; preds = %init.end
  call void @llvm.lifetime.end.p0(i64 16, ptr nonnull %sp.i.i)
  call void @llvm.lifetime.end.p0(i64 16, ptr nonnull %args.i.i)
  call void @llvm.lifetime.end.p0(i64 16, ptr nonnull %ref.tmp.i)
  call void @llvm.lifetime.end.p0(i64 16, ptr nonnull %ref.tmp3.i)
  br i1 %call.i.i2, label %if.end, label %if.then

if.then:                                          ; preds = %invoke.cont5
  call void @llvm.trap()
  unreachable

lpad:                                             ; preds = %init
  %4 = landingpad { ptr, i32 }
          cleanup
  tail call void @__cxa_guard_abort(ptr nonnull @_ZGVZN8facebook5velox4core10toCapacityERKNSt7__cxx1112basic_stringIcSt11char_traitsIcESaIcEEENS1_12CapacityUnitEE8kPattern) #14
  br label %eh.resume

lpad1:                                            ; preds = %init.end
  %5 = landingpad { ptr, i32 }
          cleanup
  call void @_ZNSt7__cxx1112basic_stringIcSt11char_traitsIcESaIcEED1Ev(ptr noundef nonnull align 8 dereferenceable(32) %unit) #14
  br label %eh.resume

if.end:                                           ; preds = %invoke.cont5
  %6 = load double, ptr %value, align 8
  %call7 = call noundef i32 @_ZN8facebook5velox4core19valueOfCapacityUnitERKNSt7__cxx1112basic_stringIcSt11char_traitsIcESaIcEEE(ptr noundef nonnull align 8 dereferenceable(32) %unit), !range !5
  %7 = icmp ult i32 %to, 6
  br i1 %7, label %switch.lookup, label %sw.default.i9

sw.default.i9:                                    ; preds = %if.end
  call void @llvm.trap()
  unreachable

switch.lookup:                                    ; preds = %if.end
  %8 = zext nneg i32 %call7 to i64
  %switch.gep = getelementptr inbounds [6 x double], ptr @switch.table._ZN8facebook5velox4core10toCapacityERKNSt7__cxx1112basic_stringIcSt11char_traitsIcESaIcEEENS1_12CapacityUnitE.1, i64 0, i64 %8
  %switch.load = load double, ptr %switch.gep, align 8
  %9 = zext nneg i32 %to to i64
  %switch.gep11 = getelementptr inbounds [6 x double], ptr @switch.table._ZN8facebook5velox4core10toCapacityERKNSt7__cxx1112basic_stringIcSt11char_traitsIcESaIcEEENS1_12CapacityUnitE.1, i64 0, i64 %9
  %switch.load12 = load double, ptr %switch.gep11, align 8
  %div = fdiv double %switch.load, %switch.load12
  %mul = fmul double %6, %div
  %conv = fptoui double %mul to i64
  call void @_ZNSt7__cxx1112basic_stringIcSt11char_traitsIcESaIcEED1Ev(ptr noundef nonnull align 8 dereferenceable(32) %unit) #14
  ret i64 %conv

eh.resume:                                        ; preds = %lpad1, %lpad
  %.pn = phi { ptr, i32 } [ %5, %lpad1 ], [ %4, %lpad ]
  resume { ptr, i32 } %.pn
}